target datalayout = "e-m:e-p270:32:32-p271:32:32-p272:64:64-i64:64-i128:128-f80:128-n8:16:32:64-S128"
target triple = "x86_64-pc-linux-gnu"

%"class.std::__cxx11::basic_string" = type { %"struct.std::__cxx11::basic_string<char>::_Alloc_hider", i64, %union.anon }
%"struct.std::__cxx11::basic_string<char>::_Alloc_hider" = type { ptr }
%union.anon = type { i64, [8 x i8] }
%class.cmComputeTargetDepends = type { ptr, i8, i8, %"class.std::vector", %"class.std::map", %struct.cmGraphAdjacencyList, %struct.cmGraphAdjacencyList, %struct.cmGraphAdjacencyList, %"class.std::vector.11", %"class.std::vector.16", %"class.std::vector.16" }
%"class.std::vector" = type { %"struct.std::_Vector_base" }
%"struct.std::_Vector_base" = type { %"struct.std::_Vector_base<const cmGeneratorTarget *, std::allocator<const cmGeneratorTarget *>>::_Vector_impl" }
%"struct.std::_Vector_base<const cmGeneratorTarget *, std::allocator<const cmGeneratorTarget *>>::_Vector_impl" = type { %"struct.std::_Vector_base<const cmGeneratorTarget *, std::allocator<const cmGeneratorTarget *>>::_Vector_impl_data" }
%"struct.std::_Vector_base<const cmGeneratorTarget *, std::allocator<const cmGeneratorTarget *>>::_Vector_impl_data" = type { ptr, ptr, ptr }
%"class.std::map" = type { %"class.std::_Rb_tree" }
%"class.std::_Rb_tree" = type { %"struct.std::_Rb_tree<const cmGeneratorTarget *, std::pair<const cmGeneratorTarget *const, unsigned long>, std::_Select1st<std::pair<const cmGeneratorTarget *const, unsigned long>>, std::less<const cmGeneratorTarget *>>::_Rb_tree_impl" }
%"struct.std::_Rb_tree<const cmGeneratorTarget *, std::pair<const cmGeneratorTarget *const, unsigned long>, std::_Select1st<std::pair<const cmGeneratorTarget *const, unsigned long>>, std::less<const cmGeneratorTarget *>>::_Rb_tree_impl" = type { [8 x i8], %"struct.std::_Rb_tree_header" }
%"struct.std::_Rb_tree_header" = type { %"struct.std::_Rb_tree_node_base", i64 }
%"struct.std::_Rb_tree_node_base" = type { i32, ptr, ptr, ptr }
%struct.cmGraphAdjacencyList = type { %"class.std::vector.6" }
%"class.std::vector.6" = type { %"struct.std::_Vector_base.7" }
%"struct.std::_Vector_base.7" = type { %"struct.std::_Vector_base<cmGraphEdgeList, std::allocator<cmGraphEdgeList>>::_Vector_impl" }
%"struct.std::_Vector_base<cmGraphEdgeList, std::allocator<cmGraphEdgeList>>::_Vector_impl" = type { %"struct.std::_Vector_base<cmGraphEdgeList, std::allocator<cmGraphEdgeList>>::_Vector_impl_data" }
%"struct.std::_Vector_base<cmGraphEdgeList, std::allocator<cmGraphEdgeList>>::_Vector_impl_data" = type { ptr, ptr, ptr }
%"class.std::vector.11" = type { %"struct.std::_Vector_base.12" }
%"struct.std::_Vector_base.12" = type { %"struct.std::_Vector_base<cmComputeTargetDepends::TargetSideEffects, std::allocator<cmComputeTargetDepends::TargetSideEffects>>::_Vector_impl" }
%"struct.std::_Vector_base<cmComputeTargetDepends::TargetSideEffects, std::allocator<cmComputeTargetDepends::TargetSideEffects>>::_Vector_impl" = type { %"struct.std::_Vector_base<cmComputeTargetDepends::TargetSideEffects, std::allocator<cmComputeTargetDepends::TargetSideEffects>>::_Vector_impl_data" }
%"struct.std::_Vector_base<cmComputeTargetDepends::TargetSideEffects, std::allocator<cmComputeTargetDepends::TargetSideEffects>>::_Vector_impl_data" = type { ptr, ptr, ptr }
%"class.std::vector.16" = type { %"struct.std::_Vector_base.17" }
%"struct.std::_Vector_base.17" = type { %"struct.std::_Vector_base<unsigned long, std::allocator<unsigned long>>::_Vector_impl" }
%"struct.std::_Vector_base<unsigned long, std::allocator<unsigned long>>::_Vector_impl" = type { %"struct.std::_Vector_base<unsigned long, std::allocator<unsigned long>>::_Vector_impl_data" }
%"struct.std::_Vector_base<unsigned long, std::allocator<unsigned long>>::_Vector_impl_data" = type { ptr, ptr, ptr }
%class.cmComputeComponentGraph = type { ptr, %struct.cmGraphAdjacencyList, %"class.std::vector.16", %"class.std::vector.16", %"class.std::vector.405", %"class.std::vector.410", %"class.std::stack", i64, i64 }
%"class.std::vector.405" = type { %"struct.std::_Vector_base.406" }
%"struct.std::_Vector_base.406" = type { %"struct.std::_Vector_base<cmComputeComponentGraph::TarjanEntry, std::allocator<cmComputeComponentGraph::TarjanEntry>>::_Vector_impl" }
%"struct.std::_Vector_base<cmComputeComponentGraph::TarjanEntry, std::allocator<cmComputeComponentGraph::TarjanEntry>>::_Vector_impl" = type { %"struct.std::_Vector_base<cmComputeComponentGraph::TarjanEntry, std::allocator<cmComputeComponentGraph::TarjanEntry>>::_Vector_impl_data" }
%"struct.std::_Vector_base<cmComputeComponentGraph::TarjanEntry, std::allocator<cmComputeComponentGraph::TarjanEntry>>::_Vector_impl_data" = type { ptr, ptr, ptr }
%"class.std::vector.410" = type { %"struct.std::_Vector_base.411" }
%"struct.std::_Vector_base.411" = type { %"struct.std::_Vector_base<cmGraphNodeList, std::allocator<cmGraphNodeList>>::_Vector_impl" }
%"struct.std::_Vector_base<cmGraphNodeList, std::allocator<cmGraphNodeList>>::_Vector_impl" = type { %"struct.std::_Vector_base<cmGraphNodeList, std::allocator<cmGraphNodeList>>::_Vector_impl_data" }
%"struct.std::_Vector_base<cmGraphNodeList, std::allocator<cmGraphNodeList>>::_Vector_impl_data" = type { ptr, ptr, ptr }
%"class.std::stack" = type { %"class.std::deque" }
%"class.std::deque" = type { %"class.std::_Deque_base" }
%"class.std::_Deque_base" = type { %"struct.std::_Deque_base<unsigned long, std::allocator<unsigned long>>::_Deque_impl" }
%"struct.std::_Deque_base<unsigned long, std::allocator<unsigned long>>::_Deque_impl" = type { %"struct.std::_Deque_base<unsigned long, std::allocator<unsigned long>>::_Deque_impl_data" }
%"struct.std::_Deque_base<unsigned long, std::allocator<unsigned long>>::_Deque_impl_data" = type { ptr, i64, %"struct.std::_Deque_iterator", %"struct.std::_Deque_iterator" }
%"struct.std::_Deque_iterator" = type { ptr, ptr, ptr, ptr }
%"class.__gnu_cxx::__normal_iterator.875" = type { ptr }
%struct.cmGraphNodeList = type { %"class.std::vector.16" }

@stderr = external global ptr, align 8
@.str.17 = private unnamed_addr constant [2 x i8] c"\0A\00", align 1
@.str.22 = private unnamed_addr constant [57 x i8] c"The strongly connected components for the %s graph are:\0A\00", align 1
@.str.23 = private unnamed_addr constant [18 x i8] c"Component (%zu):\0A\00", align 1
@.str.24 = private unnamed_addr constant [28 x i8] c"  contains target %zu [%s]\0A\00", align 1

; Function Attrs: mustprogress nounwind uwtable
define linkonce_odr dso_local noundef nonnull align 8 dereferenceable(8) ptr @_ZNK9__gnu_cxx17__normal_iteratorIPKmSt6vectorImSaImEEE4baseEv(ptr noundef nonnull align 8 dereferenceable(8) %0) #6 comdat align 2 {
  %2 = alloca ptr, align 8
  store ptr %0, ptr %2, align 8, !tbaa !500
  %3 = load ptr, ptr %2, align 8
  %4 = getelementptr inbounds nuw %"class.__gnu_cxx::__normal_iterator.875", ptr %3, i32 0, i32 0
  ret ptr %4
}

; Function Attrs: mustprogress nounwind uwtable
define linkonce_odr dso_local void @_ZN9__gnu_cxx17__normal_iteratorIPKmSt6vectorImSaImEEEC2ERKS2_(ptr noundef nonnull align 8 dereferenceable(8) %0, ptr noundef nonnull align 8 dereferenceable(8) %1) unnamed_addr #6 comdat align 2 {
  %3 = alloca ptr, align 8
  %4 = alloca ptr, align 8
  store ptr %0, ptr %3, align 8, !tbaa !500
  store ptr %1, ptr %4, align 8, !tbaa !968
  %5 = load ptr, ptr %3, align 8
  %6 = getelementptr inbounds nuw %"class.__gnu_cxx::__normal_iterator.875", ptr %5, i32 0, i32 0
  %7 = load ptr, ptr %4, align 8, !tbaa !968
  %8 = load ptr, ptr %7, align 8, !tbaa !462
  store ptr %8, ptr %6, align 8, !tbaa !502
  ret void
}

; Function Attrs: mustprogress nounwind uwtable
define available_externally noundef ptr @_ZNKSt7__cxx1112basic_stringIcSt11char_traitsIcESaIcEE7_M_dataEv(ptr noundef nonnull align 8 dereferenceable(32) %0) #6 align 2 {
  %2 = alloca ptr, align 8
  store ptr %0, ptr %2, align 8, !tbaa !18
  %3 = load ptr, ptr %2, align 8
  %4 = getelementptr inbounds nuw %"class.std::__cxx11::basic_string", ptr %3, i32 0, i32 0
  %5 = getelementptr inbounds nuw %"struct.std::__cxx11::basic_string<char>::_Alloc_hider", ptr %4, i32 0, i32 0
  %6 = load ptr, ptr %5, align 8, !tbaa !683
  ret ptr %6
}

; Function Attrs: mustprogress nounwind uwtable
define linkonce_odr dso_local noundef nonnull align 8 dereferenceable(8) ptr @_ZN9__gnu_cxx17__normal_iteratorIPKmSt6vectorImSaImEEEppEv(ptr noundef nonnull align 8 dereferenceable(8) %0) #6 comdat align 2 {
  %2 = alloca ptr, align 8
  store ptr %0, ptr %2, align 8, !tbaa !500
  %3 = load ptr, ptr %2, align 8
  %4 = getelementptr inbounds nuw %"class.__gnu_cxx::__normal_iterator.875", ptr %3, i32 0, i32 0
  %5 = load ptr, ptr %4, align 8, !tbaa !502
  %6 = getelementptr inbounds nuw i64, ptr %5, i32 1
  store ptr %6, ptr %4, align 8, !tbaa !502
  ret ptr %3
}

; Function Attrs: mustprogress nounwind uwtable
define linkonce_odr dso_local noundef nonnull align 8 dereferenceable(8) ptr @_ZNSt6vectorIPK17cmGeneratorTargetSaIS2_EEixEm(ptr noundef nonnull align 8 dereferenceable(24) %0, i64 noundef %1) #6 comdat align 2 {
  %3 = alloca ptr, align 8
  %4 = alloca i64, align 8
  store ptr %0, ptr %3, align 8, !tbaa !61
  store i64 %1, ptr %4, align 8, !tbaa !17
  %5 = load ptr, ptr %3, align 8
  %6 = getelementptr inbounds nuw %"struct.std::_Vector_base", ptr %5, i32 0, i32 0
  %7 = getelementptr inbounds nuw %"struct.std::_Vector_base<const cmGeneratorTarget *, std::allocator<const cmGeneratorTarget *>>::_Vector_impl_data", ptr %6, i32 0, i32 0
  %8 = load ptr, ptr %7, align 8, !tbaa !204
  %9 = load i64, ptr %4, align 8, !tbaa !17
  %10 = getelementptr inbounds nuw ptr, ptr %8, i64 %9
  ret ptr %10
}

; Function Attrs: mustprogress nounwind uwtable
define linkonce_odr dso_local noundef nonnull align 8 dereferenceable(8) ptr @_ZNK9__gnu_cxx17__normal_iteratorIPKmSt6vectorImSaImEEEdeEv(ptr noundef nonnull align 8 dereferenceable(8) %0) #6 comdat align 2 {
  %2 = alloca ptr, align 8
  store ptr %0, ptr %2, align 8, !tbaa !500
  %3 = load ptr, ptr %2, align 8
  %4 = getelementptr inbounds nuw %"class.__gnu_cxx::__normal_iterator.875", ptr %3, i32 0, i32 0
  %5 = load ptr, ptr %4, align 8, !tbaa !502
  ret ptr %5
}

; Function Attrs: inlinehint mustprogress nounwind uwtable
define linkonce_odr dso_local noundef zeroext i1 @_ZN9__gnu_cxxneIPKmSt6vectorImSaImEEEEbRKNS_17__normal_iteratorIT_T0_EESB_(ptr noundef nonnull align 8 dereferenceable(8) %0, ptr noundef nonnull align 8 dereferenceable(8) %1) #7 comdat {
  %3 = alloca ptr, align 8
  %4 = alloca ptr, align 8
  store ptr %0, ptr %3, align 8, !tbaa !500
  store ptr %1, ptr %4, align 8, !tbaa !500
  %5 = load ptr, ptr %3, align 8, !tbaa !500
  %6 = call noundef nonnull align 8 dereferenceable(8) ptr @_ZNK9__gnu_cxx17__normal_iteratorIPKmSt6vectorImSaImEEE4baseEv(ptr noundef nonnull align 8 dereferenceable(8) %5) #3
  %7 = load ptr, ptr %6, align 8, !tbaa !462
  %8 = load ptr, ptr %4, align 8, !tbaa !500
  %9 = call noundef nonnull align 8 dereferenceable(8) ptr @_ZNK9__gnu_cxx17__normal_iteratorIPKmSt6vectorImSaImEEE4baseEv(ptr noundef nonnull align 8 dereferenceable(8) %8) #3
  %10 = load ptr, ptr %9, align 8, !tbaa !462
  %11 = icmp ne ptr %7, %10
  ret i1 %11
}

; Function Attrs: mustprogress nounwind uwtable
define linkonce_odr dso_local ptr @_ZNKSt6vectorImSaImEE3endEv(ptr noundef nonnull align 8 dereferenceable(24) %0) #6 comdat align 2 {
  %2 = alloca %"class.__gnu_cxx::__normal_iterator.875", align 8
  %3 = alloca ptr, align 8
  store ptr %0, ptr %3, align 8, !tbaa !69
  %4 = load ptr, ptr %3, align 8
  %5 = getelementptr inbounds nuw %"struct.std::_Vector_base.17", ptr %4, i32 0, i32 0
  %6 = getelementptr inbounds nuw %"struct.std::_Vector_base<unsigned long, std::allocator<unsigned long>>::_Vector_impl_data", ptr %5, i32 0, i32 1
  call void @_ZN9__gnu_cxx17__normal_iteratorIPKmSt6vectorImSaImEEEC2ERKS2_(ptr noundef nonnull align 8 dereferenceable(8) %2, ptr noundef nonnull align 8 dereferenceable(8) %6) #3
  %7 = getelementptr inbounds nuw %"class.__gnu_cxx::__normal_iterator.875", ptr %2, i32 0, i32 0
  %8 = load ptr, ptr %7, align 8
  ret ptr %8
}

; Function Attrs: mustprogress nounwind uwtable
define linkonce_odr dso_local ptr @_ZNKSt6vectorImSaImEE5beginEv(ptr noundef nonnull align 8 dereferenceable(24) %0) #6 comdat align 2 {
  %2 = alloca %"class.__gnu_cxx::__normal_iterator.875", align 8
  %3 = alloca ptr, align 8
  store ptr %0, ptr %3, align 8, !tbaa !69
  %4 = load ptr, ptr %3, align 8
  %5 = getelementptr inbounds nuw %"struct.std::_Vector_base.17", ptr %4, i32 0, i32 0
  %6 = getelementptr inbounds nuw %"struct.std::_Vector_base<unsigned long, std::allocator<unsigned long>>::_Vector_impl_data", ptr %5, i32 0, i32 0
  call void @_ZN9__gnu_cxx17__normal_iteratorIPKmSt6vectorImSaImEEEC2ERKS2_(ptr noundef nonnull align 8 dereferenceable(8) %2, ptr noundef nonnull align 8 dereferenceable(8) %6) #3
  %7 = getelementptr inbounds nuw %"class.__gnu_cxx::__normal_iterator.875", ptr %2, i32 0, i32 0
  %8 = load ptr, ptr %7, align 8
  ret ptr %8
}

; Function Attrs: mustprogress nounwind uwtable
define linkonce_odr dso_local noundef nonnull align 8 dereferenceable(24) ptr @_ZNKSt6vectorI15cmGraphNodeListSaIS0_EEixEm(ptr noundef nonnull align 8 dereferenceable(24) %0, i64 noundef %1) #6 comdat align 2 {
  %3 = alloca ptr, align 8
  %4 = alloca i64, align 8
  store ptr %0, ptr %3, align 8, !tbaa !227
  store i64 %1, ptr %4, align 8, !tbaa !17
  %5 = load ptr, ptr %3, align 8
  %6 = getelementptr inbounds nuw %"struct.std::_Vector_base.411", ptr %5, i32 0, i32 0
  %7 = getelementptr inbounds nuw %"struct.std::_Vector_base<cmGraphNodeList, std::allocator<cmGraphNodeList>>::_Vector_impl_data", ptr %6, i32 0, i32 0
  %8 = load ptr, ptr %7, align 8, !tbaa !499
  %9 = load i64, ptr %4, align 8, !tbaa !17
  %10 = getelementptr inbounds nuw %struct.cmGraphNodeList, ptr %8, i64 %9
  ret ptr %10
}

; Function Attrs: mustprogress nounwind uwtable
define linkonce_odr dso_local noundef i64 @_ZNKSt6vectorI15cmGraphNodeListSaIS0_EE4sizeEv(ptr noundef nonnull align 8 dereferenceable(24) %0) #6 comdat align 2 {
  %2 = alloca ptr, align 8
  store ptr %0, ptr %2, align 8, !tbaa !227
  %3 = load ptr, ptr %2, align 8
  %4 = getelementptr inbounds nuw %"struct.std::_Vector_base.411", ptr %3, i32 0, i32 0
  %5 = getelementptr inbounds nuw %"struct.std::_Vector_base<cmGraphNodeList, std::allocator<cmGraphNodeList>>::_Vector_impl_data", ptr %4, i32 0, i32 1
  %6 = load ptr, ptr %5, align 8, !tbaa !497
  %7 = getelementptr inbounds nuw %"struct.std::_Vector_base.411", ptr %3, i32 0, i32 0
  %8 = getelementptr inbounds nuw %"struct.std::_Vector_base<cmGraphNodeList, std::allocator<cmGraphNodeList>>::_Vector_impl_data", ptr %7, i32 0, i32 0
  %9 = load ptr, ptr %8, align 8, !tbaa !499
  %10 = ptrtoint ptr %6 to i64
  %11 = ptrtoint ptr %9 to i64
  %12 = sub i64 %10, %11
  %13 = sdiv exact i64 %12, 24
  ret i64 %13
}

; Function Attrs: mustprogress nounwind uwtable
define linkonce_odr dso_local noundef nonnull align 8 dereferenceable(24) ptr @_ZNK23cmComputeComponentGraph13GetComponentsEv(ptr noundef nonnull align 8 dereferenceable(224) %0) #6 comdat align 2 {
  %2 = alloca ptr, align 8
  store ptr %0, ptr %2, align 8, !tbaa !225
  %3 = load ptr, ptr %2, align 8
  %4 = getelementptr inbounds nuw %class.cmComputeComponentGraph, ptr %3, i32 0, i32 5
  ret ptr %4
}

; Function Attrs: mustprogress nounwind uwtable
define available_externally noundef ptr @_ZNKSt7__cxx1112basic_stringIcSt11char_traitsIcESaIcEE5c_strEv(ptr noundef nonnull align 8 dereferenceable(32) %0) #6 align 2 {
  %2 = alloca ptr, align 8
  store ptr %0, ptr %2, align 8, !tbaa !18
  %3 = load ptr, ptr %2, align 8
  %4 = call noundef ptr @_ZNKSt7__cxx1112basic_stringIcSt11char_traitsIcESaIcEE7_M_dataEv(ptr noundef nonnull align 8 dereferenceable(32) %3)
  ret ptr %4
}

; Function Attrs: mustprogress uwtable
define dso_local void @_ZN22cmComputeTargetDepends17DisplayComponentsERK23cmComputeComponentGraphRKNSt7__cxx1112basic_stringIcSt11char_traitsIcESaIcEEE(ptr noundef nonnull align 8 dereferenceable(232) %0, ptr noundef nonnull align 8 dereferenceable(224) %1, ptr noundef nonnull align 8 dereferenceable(32) %2) #5 align 2 {
  %4 = alloca ptr, align 8
  %5 = alloca ptr, align 8
  %6 = alloca ptr, align 8
  %7 = alloca ptr, align 8
  %8 = alloca i64, align 8
  %9 = alloca i64, align 8
  %10 = alloca i32, align 4
  %11 = alloca ptr, align 8
  %12 = alloca ptr, align 8
  %13 = alloca %"class.__gnu_cxx::__normal_iterator.875", align 8
  %14 = alloca %"class.__gnu_cxx::__normal_iterator.875", align 8
  %15 = alloca i64, align 8
  store ptr %0, ptr %4, align 8, !tbaa !20
  store ptr %1, ptr %5, align 8, !tbaa !225
  store ptr %2, ptr %6, align 8, !tbaa !18
  %16 = load ptr, ptr %4, align 8
  %17 = load ptr, ptr @stderr, align 8, !tbaa !219
  %18 = load ptr, ptr %6, align 8, !tbaa !18
  %19 = call noundef ptr @_ZNKSt7__cxx1112basic_stringIcSt11char_traitsIcESaIcEE5c_strEv(ptr noundef nonnull align 8 dereferenceable(32) %18) #3
  %20 = call i32 (ptr, ptr, ...) @fprintf(ptr noundef %17, ptr noundef @.str.22, ptr noundef %19) #3
  call void @llvm.lifetime.start.p0(i64 8, ptr %7) #3
  %21 = load ptr, ptr %5, align 8, !tbaa !225
  %22 = call noundef nonnull align 8 dereferenceable(24) ptr @_ZNK23cmComputeComponentGraph13GetComponentsEv(ptr noundef nonnull align 8 dereferenceable(224) %21)
  store ptr %22, ptr %7, align 8, !tbaa !227
  call void @llvm.lifetime.start.p0(i64 8, ptr %8) #3
  %23 = load ptr, ptr %7, align 8, !tbaa !227
  %24 = call noundef i64 @_ZNKSt6vectorI15cmGraphNodeListSaIS0_EE4sizeEv(ptr noundef nonnull align 8 dereferenceable(24) %23) #3
  store i64 %24, ptr %8, align 8, !tbaa !17
  call void @llvm.lifetime.start.p0(i64 8, ptr %9) #3
  store i64 0, ptr %9, align 8, !tbaa !17
  br label %25

25:                                               ; preds = %62, %3
  %26 = load i64, ptr %9, align 8, !tbaa !17
  %27 = load i64, ptr %8, align 8, !tbaa !17
  %28 = icmp ult i64 %26, %27
  br i1 %28, label %30, label %29

29:                                               ; preds = %25
  store i32 2, ptr %10, align 4
  call void @llvm.lifetime.end.p0(i64 8, ptr %9) #3
  br label %65

30:                                               ; preds = %25
  call void @llvm.lifetime.start.p0(i64 8, ptr %11) #3
  %31 = load ptr, ptr %7, align 8, !tbaa !227
  %32 = load i64, ptr %9, align 8, !tbaa !17
  %33 = call noundef nonnull align 8 dereferenceable(24) ptr @_ZNKSt6vectorI15cmGraphNodeListSaIS0_EEixEm(ptr noundef nonnull align 8 dereferenceable(24) %31, i64 noundef %32) #3
  store ptr %33, ptr %11, align 8, !tbaa !229
  %34 = load ptr, ptr @stderr, align 8, !tbaa !219
  %35 = load i64, ptr %9, align 8, !tbaa !17
  %36 = call i32 (ptr, ptr, ...) @fprintf(ptr noundef %34, ptr noundef @.str.23, i64 noundef %35) #3
  call void @llvm.lifetime.start.p0(i64 8, ptr %12) #3
  %37 = load ptr, ptr %11, align 8, !tbaa !229
  store ptr %37, ptr %12, align 8, !tbaa !229
  call void @llvm.lifetime.start.p0(i64 8, ptr %13) #3
  %38 = load ptr, ptr %12, align 8, !tbaa !229
  %39 = call ptr @_ZNKSt6vectorImSaImEE5beginEv(ptr noundef nonnull align 8 dereferenceable(24) %38) #3
  %40 = getelementptr inbounds nuw %"class.__gnu_cxx::__normal_iterator.875", ptr %13, i32 0, i32 0
  store ptr %39, ptr %40, align 8
  call void @llvm.lifetime.start.p0(i64 8, ptr %14) #3
  %41 = load ptr, ptr %12, align 8, !tbaa !229
  %42 = call ptr @_ZNKSt6vectorImSaImEE3endEv(ptr noundef nonnull align 8 dereferenceable(24) %41) #3
  %43 = getelementptr inbounds nuw %"class.__gnu_cxx::__normal_iterator.875", ptr %14, i32 0, i32 0
  store ptr %42, ptr %43, align 8
  br label %44

44:                                               ; preds = %59, %30
  %45 = call noundef zeroext i1 @_ZN9__gnu_cxxneIPKmSt6vectorImSaImEEEEbRKNS_17__normal_iteratorIT_T0_EESB_(ptr noundef nonnull align 8 dereferenceable(8) %13, ptr noundef nonnull align 8 dereferenceable(8) %14) #3
  br i1 %45, label %47, label %46

46:                                               ; preds = %44
  store i32 5, ptr %10, align 4
  call void @llvm.lifetime.end.p0(i64 8, ptr %14) #3
  call void @llvm.lifetime.end.p0(i64 8, ptr %13) #3
  call void @llvm.lifetime.end.p0(i64 8, ptr %12) #3
  br label %61

47:                                               ; preds = %44
  call void @llvm.lifetime.start.p0(i64 8, ptr %15) #3
  %48 = call noundef nonnull align 8 dereferenceable(8) ptr @_ZNK9__gnu_cxx17__normal_iteratorIPKmSt6vectorImSaImEEEdeEv(ptr noundef nonnull align 8 dereferenceable(8) %13) #3
  %49 = load i64, ptr %48, align 8, !tbaa !17
  store i64 %49, ptr %15, align 8, !tbaa !17
  %50 = load ptr, ptr @stderr, align 8, !tbaa !219
  %51 = load i64, ptr %15, align 8, !tbaa !17
  %52 = getelementptr inbounds nuw %class.cmComputeTargetDepends, ptr %16, i32 0, i32 3
  %53 = load i64, ptr %15, align 8, !tbaa !17
  %54 = call noundef nonnull align 8 dereferenceable(8) ptr @_ZNSt6vectorIPK17cmGeneratorTargetSaIS2_EEixEm(ptr noundef nonnull align 8 dereferenceable(24) %52, i64 noundef %53) #3
  %55 = load ptr, ptr %54, align 8, !tbaa !215
  %56 = call noundef nonnull align 8 dereferenceable(32) ptr @_ZNK17cmGeneratorTarget7GetNameB5cxx11Ev(ptr noundef nonnull align 8 dereferenceable(2912) %55)
  %57 = call noundef ptr @_ZNKSt7__cxx1112basic_stringIcSt11char_traitsIcESaIcEE5c_strEv(ptr noundef nonnull align 8 dereferenceable(32) %56) #3
  %58 = call i32 (ptr, ptr, ...) @fprintf(ptr noundef %50, ptr noundef @.str.24, i64 noundef %51, ptr noundef %57) #3
  call void @llvm.lifetime.end.p0(i64 8, ptr %15) #3
  br label %59

59:                                               ; preds = %47
  %60 = call noundef nonnull align 8 dereferenceable(8) ptr @_ZN9__gnu_cxx17__normal_iteratorIPKmSt6vectorImSaImEEEppEv(ptr noundef nonnull align 8 dereferenceable(8) %13) #3
  br label %44

61:                                               ; preds = %46
  call void @llvm.lifetime.end.p0(i64 8, ptr %11) #3
  br label %62

62:                                               ; preds = %61
  %63 = load i64, ptr %9, align 8, !tbaa !17
  %64 = add i64 %63, 1
  store i64 %64, ptr %9, align 8, !tbaa !17
  br label %25, !llvm.loop !241

65:                                               ; preds = %29
  %66 = load ptr, ptr @stderr, align 8, !tbaa !219
  %67 = call i32 (ptr, ptr, ...) @fprintf(ptr noundef %66, ptr noundef @.str.17) #3
  call void @llvm.lifetime.end.p0(i64 8, ptr %8) #3
  call void @llvm.lifetime.end.p0(i64 8, ptr %7) #3
  ret void
}