; Function Attrs: cold mustprogress uwtable
define dso_local void @_ZN22cmComputeTargetDepends17DisplayComponentsERK23cmComputeComponentGraphRKNSt7__cxx1112basic_stringIcSt11char_traitsIcESaIcEEE(ptr noundef nonnull readonly align 8 captures(none) dereferenceable(232) %0, ptr noundef nonnull readonly align 8 captures(none) dereferenceable(224) %1, ptr noundef nonnull readonly align 8 captures(none) dereferenceable(32) %2) local_unnamed_addr #6 align 2 {
  %4 = load ptr, ptr @stderr, align 8, !tbaa !232
  %5 = load ptr, ptr %2, align 8, !tbaa !174
  %6 = tail call i32 (ptr, ptr, ...) @fprintf(ptr noundef %4, ptr noundef nonnull @.str.22, ptr noundef %5) #29
  %7 = getelementptr inbounds nuw i8, ptr %1, i64 104
  %8 = getelementptr inbounds nuw i8, ptr %1, i64 112
  %9 = load ptr, ptr %8, align 8, !tbaa !213
  %10 = load ptr, ptr %7, align 8, !tbaa !216
  %.not23 = icmp eq ptr %9, %10
  br i1 %.not23, label %._crit_edge22, label %.lr.ph21

.lr.ph21:                                         ; preds = %3
  %11 = ptrtoint ptr %9 to i64
  %12 = ptrtoint ptr %10 to i64
  %13 = sub i64 %11, %12
  %14 = sdiv exact i64 %13, 24
  %15 = getelementptr inbounds nuw i8, ptr %0, i64 16
  %umax = tail call i64 @llvm.umax.i64(i64 %14, i64 1)
  br label %17

._crit_edge22:                                    ; preds = %._crit_edge, %3
  %16 = load ptr, ptr @stderr, align 8, !tbaa !232
  %fputc = tail call i32 @fputc(i32 10, ptr %16)
  ret void

17:                                               ; preds = %.lr.ph21, %._crit_edge
  %.019 = phi i64 [ 0, %.lr.ph21 ], [ %25, %._crit_edge ]
  %18 = load ptr, ptr %7, align 8, !tbaa !216
  %19 = getelementptr inbounds nuw %struct.cmGraphNodeList, ptr %18, i64 %.019
  %20 = load ptr, ptr @stderr, align 8, !tbaa !232
  %21 = tail call i32 (ptr, ptr, ...) @fprintf(ptr noundef %20, ptr noundef nonnull @.str.23, i64 noundef %.019) #29
  %22 = load ptr, ptr %19, align 8, !tbaa !247
  %23 = getelementptr inbounds nuw i8, ptr %19, i64 8
  %24 = load ptr, ptr %23, align 8, !tbaa !247
  %.not17 = icmp eq ptr %22, %24
  br i1 %.not17, label %._crit_edge, label %.lr.ph

._crit_edge:                                      ; preds = %.lr.ph, %17
  %25 = add nuw i64 %.019, 1
  %exitcond.not = icmp eq i64 %25, %umax
  br i1 %exitcond.not, label %._crit_edge22, label %17, !llvm.loop !248

.lr.ph:                                           ; preds = %17, %.lr.ph
  %.sroa.014.018 = phi ptr [ %34, %.lr.ph ], [ %22, %17 ]
  %26 = load i64, ptr %.sroa.014.018, align 8, !tbaa !173
  %27 = load ptr, ptr @stderr, align 8, !tbaa !232
  %28 = load ptr, ptr %15, align 8, !tbaa !181
  %29 = getelementptr inbounds nuw ptr, ptr %28, i64 %26
  %30 = load ptr, ptr %29, align 8, !tbaa !218
  %31 = tail call noundef nonnull align 8 dereferenceable(32) ptr @_ZNK17cmGeneratorTarget7GetNameB5cxx11Ev(ptr noundef nonnull align 8 dereferenceable(2912) %30)
  %32 = load ptr, ptr %31, align 8, !tbaa !174
  %33 = tail call i32 (ptr, ptr, ...) @fprintf(ptr noundef %27, ptr noundef nonnull @.str.24, i64 noundef %26, ptr noundef %32) #29
  %34 = getelementptr inbounds nuw i8, ptr %.sroa.014.018, i64 8
  %.not = icmp eq ptr %34, %24
  br i1 %.not, label %._crit_edge, label %.lr.ph
}